; Function Attrs: mustprogress uwtable
define hidden noundef nonnull align 8 dereferenceable(8) ptr @_ZN4perf8TestBase14_declareHelper2inERKN2cv17_InputOutputArrayES5_NS0_10WarmUpTypeE(ptr noundef nonnull readonly returned align 8 dereferenceable(8) %0, ptr noundef nonnull align 8 dereferenceable(24) %1, ptr noundef nonnull align 8 dereferenceable(24) %2, i32 noundef %3) local_unnamed_addr #5 align 2 {
  %5 = load ptr, ptr %0, align 8, !tbaa !289
  %6 = getelementptr inbounds nuw i8, ptr %5, i64 72
  %7 = load ptr, ptr %6, align 8, !tbaa !344
  %8 = getelementptr inbounds nuw i8, ptr %5, i64 80
  %9 = load ptr, ptr %8, align 8, !tbaa !344
  %10 = icmp eq ptr %7, %9
  br i1 %10, label %11, label %15

11:                                               ; preds = %4
  %12 = getelementptr inbounds nuw i8, ptr %5, i64 16
  tail call void @_ZN4perf8TestBase12declareArrayERSt6vectorISt4pairIiN2cv5Size_IiEEESaIS6_EERKNS3_17_InputOutputArrayENS0_10WarmUpTypeE(ptr noundef nonnull align 8 dereferenceable(24) %12, ptr noundef nonnull align 8 dereferenceable(24) %1, i32 noundef %3)
  %13 = load ptr, ptr %0, align 8, !tbaa !289
  %14 = getelementptr inbounds nuw i8, ptr %13, i64 16
  tail call void @_ZN4perf8TestBase12declareArrayERSt6vectorISt4pairIiN2cv5Size_IiEEESaIS6_EERKNS3_17_InputOutputArrayENS0_10WarmUpTypeE(ptr noundef nonnull align 8 dereferenceable(24) %14, ptr noundef nonnull align 8 dereferenceable(24) %2, i32 noundef %3)
  br label %15

15:                                               ; preds = %4, %11
  ret ptr %0
}